target datalayout = "e-m:e-p270:32:32-p271:32:32-p272:64:64-i64:64-i128:128-f80:128-n8:16:32:64-S128"
target triple = "x86_64-unknown-linux-gnu"

%"struct.std::_Vector_base" = type { %"struct.std::_Vector_base<QuantLib::Matrix, std::allocator<QuantLib::Matrix>>::_Vector_impl" }
%"struct.std::_Vector_base<QuantLib::Matrix, std::allocator<QuantLib::Matrix>>::_Vector_impl" = type { %"struct.std::_Vector_base<QuantLib::Matrix, std::allocator<QuantLib::Matrix>>::_Vector_impl_data" }
%"struct.std::_Vector_base<QuantLib::Matrix, std::allocator<QuantLib::Matrix>>::_Vector_impl_data" = type { ptr, ptr, ptr }
%"class.boost::detail::shared_count" = type { ptr }
%"class.QuantLib::EvolutionDescription" = type { i64, %"class.std::vector.5", %"class.std::vector.5", %"class.std::vector.10", %"class.std::vector.5", %"class.std::vector.15" }
%"class.std::vector.10" = type { %"struct.std::_Vector_base.11" }
%"struct.std::_Vector_base.11" = type { %"struct.std::_Vector_base<std::pair<unsigned long, unsigned long>, std::allocator<std::pair<unsigned long, unsigned long>>>::_Vector_impl" }
%"struct.std::_Vector_base<std::pair<unsigned long, unsigned long>, std::allocator<std::pair<unsigned long, unsigned long>>>::_Vector_impl" = type { %"struct.std::_Vector_base<std::pair<unsigned long, unsigned long>, std::allocator<std::pair<unsigned long, unsigned long>>>::_Vector_impl_data" }
%"struct.std::_Vector_base<std::pair<unsigned long, unsigned long>, std::allocator<std::pair<unsigned long, unsigned long>>>::_Vector_impl_data" = type { ptr, ptr, ptr }
%"class.std::vector.5" = type { %"struct.std::_Vector_base.6" }
%"struct.std::_Vector_base.6" = type { %"struct.std::_Vector_base<double, std::allocator<double>>::_Vector_impl" }
%"struct.std::_Vector_base<double, std::allocator<double>>::_Vector_impl" = type { %"struct.std::_Vector_base<double, std::allocator<double>>::_Vector_impl_data" }
%"struct.std::_Vector_base<double, std::allocator<double>>::_Vector_impl_data" = type { ptr, ptr, ptr }
%"class.std::vector.15" = type { %"struct.std::_Vector_base.16" }
%"struct.std::_Vector_base.16" = type { %"struct.std::_Vector_base<unsigned long, std::allocator<unsigned long>>::_Vector_impl" }
%"struct.std::_Vector_base<unsigned long, std::allocator<unsigned long>>::_Vector_impl" = type { %"struct.std::_Vector_base<unsigned long, std::allocator<unsigned long>>::_Vector_impl_data" }
%"struct.std::_Vector_base<unsigned long, std::allocator<unsigned long>>::_Vector_impl_data" = type { ptr, ptr, ptr }
%"class.boost::shared_ptr.20" = type { ptr, %"class.boost::detail::shared_count" }
%"class.std::vector.21" = type { %"struct.std::_Vector_base.22" }
%"struct.std::_Vector_base.22" = type { %"struct.std::_Vector_base<boost::shared_ptr<QuantLib::PiecewiseConstantVariance>, std::allocator<boost::shared_ptr<QuantLib::PiecewiseConstantVariance>>>::_Vector_impl" }
%"struct.std::_Vector_base<boost::shared_ptr<QuantLib::PiecewiseConstantVariance>, std::allocator<boost::shared_ptr<QuantLib::PiecewiseConstantVariance>>>::_Vector_impl" = type { %"struct.std::_Vector_base<boost::shared_ptr<QuantLib::PiecewiseConstantVariance>, std::allocator<boost::shared_ptr<QuantLib::PiecewiseConstantVariance>>>::_Vector_impl_data" }
%"struct.std::_Vector_base<boost::shared_ptr<QuantLib::PiecewiseConstantVariance>, std::allocator<boost::shared_ptr<QuantLib::PiecewiseConstantVariance>>>::_Vector_impl_data" = type { ptr, ptr, ptr }
%"class.boost::shared_ptr.31" = type { ptr, %"class.boost::detail::shared_count" }
%"class.QuantLib::CTSMMCapletOriginalCalibration" = type <{ %"class.QuantLib::CTSMMCapletCalibration", %"class.std::vector.5", i8, i8, [6 x i8] }>
%"class.QuantLib::CTSMMCapletCalibration" = type { ptr, %"class.QuantLib::EvolutionDescription", %"class.boost::shared_ptr.20", %"class.std::vector.21", %"class.std::vector.5", %"class.std::vector.5", %"class.std::vector.5", %"class.std::vector.5", %"class.std::vector.26", %"class.boost::shared_ptr.31", double, i64, %"class.std::vector.5", i8, i32, double, double, double, double, double, %"class.std::vector" }
%"class.std::vector.26" = type { %"struct.std::_Vector_base.27" }
%"struct.std::_Vector_base.27" = type { %"struct.std::_Vector_base<std::vector<double>, std::allocator<std::vector<double>>>::_Vector_impl" }
%"struct.std::_Vector_base<std::vector<double>, std::allocator<std::vector<double>>>::_Vector_impl" = type { %"struct.std::_Vector_base<std::vector<double>, std::allocator<std::vector<double>>>::_Vector_impl_data" }
%"struct.std::_Vector_base<std::vector<double>, std::allocator<std::vector<double>>>::_Vector_impl_data" = type { ptr, ptr, ptr }
%"class.std::vector" = type { %"struct.std::_Vector_base" }

@.str.25 = private unnamed_addr constant [8 x i8] c"px != 0\00", align 1
@.str.26 = private unnamed_addr constant [102 x i8] c"generated/home/dtcxzyw/WorkSpace/SDK/vcpkg/installed/x64-linux/include/boost/smart_ptr/shared_ptr.hpp\00", align 1
@__PRETTY_FUNCTION__._ZNK5boost10shared_ptrIN8QuantLib10CurveStateEEdeEv = private unnamed_addr constant [134 x i8] c"typename boost::detail::sp_dereference<T>::type boost::shared_ptr<QuantLib::CurveState>::operator*() const [T = QuantLib::CurveState]\00", align 1

; Function Attrs: mustprogress uwtable
define linkonce_odr noundef nonnull align 8 dereferenceable(64) ptr @_ZNK5boost10shared_ptrIN8QuantLib10CurveStateEEdeEv(ptr noundef nonnull align 8 dereferenceable(16) %this) #2 comdat align 2 {
entry:
  %this.addr = alloca ptr, align 8
  store ptr %this, ptr %this.addr, align 8, !tbaa !3
  %this1 = load ptr, ptr %this.addr, align 8
  %px = getelementptr inbounds nuw %"class.boost::shared_ptr.31", ptr %this1, i32 0, i32 0
  %0 = load ptr, ptr %px, align 8, !tbaa !59
  %cmp = icmp ne ptr %0, null
  %lnot = xor i1 %cmp, true
  %lnot2 = xor i1 %lnot, true
  %conv = zext i1 %lnot2 to i64
  %expval = call i64 @llvm.expect.i64(i64 %conv, i64 1)
  %tobool = icmp ne i64 %expval, 0
  br i1 %tobool, label %cond.true, label %cond.false

cond.true:                                        ; preds = %entry
  br label %cond.end

cond.false:                                       ; preds = %entry
  call void @_ZN5boost16assertion_failedEPKcS1_S1_l(ptr noundef @.str.25, ptr noundef @__PRETTY_FUNCTION__._ZNK5boost10shared_ptrIN8QuantLib10CurveStateEEdeEv, ptr noundef @.str.26, i64 noundef 778)
  br label %cond.end

cond.end:                                         ; preds = %cond.false, %cond.true
  %px3 = getelementptr inbounds nuw %"class.boost::shared_ptr.31", ptr %this1, i32 0, i32 0
  %1 = load ptr, ptr %px3, align 8, !tbaa !59
  ret ptr %1
}

; Function Attrs: mustprogress uwtable
define linkonce_odr noundef nonnull align 8 dereferenceable(8) ptr @_ZNK5boost10shared_ptrIN8QuantLib28PiecewiseConstantCorrelationEEdeEv(ptr noundef nonnull align 8 dereferenceable(16) %this) #2 comdat align 2 {
entry:
  %this.addr = alloca ptr, align 8
  store ptr %this, ptr %this.addr, align 8, !tbaa !3
  %this1 = load ptr, ptr %this.addr, align 8
  %px = getelementptr inbounds nuw %"class.boost::shared_ptr.20", ptr %this1, i32 0, i32 0
  %0 = load ptr, ptr %px, align 8, !tbaa !54
  %cmp = icmp ne ptr %0, null
  %lnot = xor i1 %cmp, true
  %lnot2 = xor i1 %lnot, true
  %conv = zext i1 %lnot2 to i64
  %expval = call i64 @llvm.expect.i64(i64 %conv, i64 1)
  %tobool = icmp ne i64 %expval, 0
  br i1 %tobool, label %cond.true, label %cond.false

cond.true:                                        ; preds = %entry
  br label %cond.end

cond.false:                                       ; preds = %entry
  call void @_ZN5boost16assertion_failedEPKcS1_S1_l(ptr noundef @.str.25, ptr noundef @__PRETTY_FUNCTION__._ZNK5boost10shared_ptrIN8QuantLib28PiecewiseConstantCorrelationEEdeEv, ptr noundef @.str.26, i64 noundef 778)
  br label %cond.end

cond.end:                                         ; preds = %cond.false, %cond.true
  %px3 = getelementptr inbounds nuw %"class.boost::shared_ptr.20", ptr %this1, i32 0, i32 0
  %1 = load ptr, ptr %px3, align 8, !tbaa !54
  ret ptr %1
}

; Function Attrs: mustprogress uwtable
define noundef i32 @_ZN8QuantLib30CTSMMCapletOriginalCalibration16calibrationImpl_Ejjd(ptr noundef nonnull align 8 dereferenceable(450) %this, i32 noundef %numberOfFactors, i32 noundef %0, double noundef %1) unnamed_addr #2 align 2 {
entry:
  %this.addr = alloca ptr, align 8
  %numberOfFactors.addr = alloca i32, align 4
  %.addr = alloca i32, align 4
  %.addr1 = alloca double, align 8
  store ptr %this, ptr %this.addr, align 8, !tbaa !3
  store i32 %numberOfFactors, ptr %numberOfFactors.addr, align 4, !tbaa !60
  store i32 %0, ptr %.addr, align 4, !tbaa !60
  store double %1, ptr %.addr1, align 8, !tbaa !14
  %this2 = load ptr, ptr %this.addr, align 8
  %evolution_ = getelementptr inbounds nuw %"class.QuantLib::CTSMMCapletCalibration", ptr %this2, i32 0, i32 1
  %corr_ = getelementptr inbounds nuw %"class.QuantLib::CTSMMCapletCalibration", ptr %this2, i32 0, i32 2
  %call = call noundef nonnull align 8 dereferenceable(8) ptr @_ZNK5boost10shared_ptrIN8QuantLib28PiecewiseConstantCorrelationEEdeEv(ptr noundef nonnull align 8 dereferenceable(16) %corr_)
  %displacedSwapVariances_ = getelementptr inbounds nuw %"class.QuantLib::CTSMMCapletCalibration", ptr %this2, i32 0, i32 3
  %usedCapletVols_ = getelementptr inbounds nuw %"class.QuantLib::CTSMMCapletCalibration", ptr %this2, i32 0, i32 12
  %cs_ = getelementptr inbounds nuw %"class.QuantLib::CTSMMCapletCalibration", ptr %this2, i32 0, i32 9
  %call3 = call noundef nonnull align 8 dereferenceable(64) ptr @_ZNK5boost10shared_ptrIN8QuantLib10CurveStateEEdeEv(ptr noundef nonnull align 8 dereferenceable(16) %cs_)
  %displacement_ = getelementptr inbounds nuw %"class.QuantLib::CTSMMCapletCalibration", ptr %this2, i32 0, i32 10
  %2 = load double, ptr %displacement_, align 8, !tbaa !101
  %alpha_ = getelementptr inbounds nuw %"class.QuantLib::CTSMMCapletOriginalCalibration", ptr %this2, i32 0, i32 1
  %lowestRoot_ = getelementptr inbounds nuw %"class.QuantLib::CTSMMCapletOriginalCalibration", ptr %this2, i32 0, i32 2
  %3 = load i8, ptr %lowestRoot_, align 8, !tbaa !20, !range !18, !noundef !19
  %loadedv = trunc i8 %3 to i1
  %useFullApprox_ = getelementptr inbounds nuw %"class.QuantLib::CTSMMCapletOriginalCalibration", ptr %this2, i32 0, i32 3
  %4 = load i8, ptr %useFullApprox_, align 1, !tbaa !51, !range !18, !noundef !19
  %loadedv4 = trunc i8 %4 to i1
  %5 = load i32, ptr %numberOfFactors.addr, align 4, !tbaa !60
  %conv = zext i32 %5 to i64
  %swapCovariancePseudoRoots_ = getelementptr inbounds nuw %"class.QuantLib::CTSMMCapletCalibration", ptr %this2, i32 0, i32 20
  %call5 = call noundef i32 @_ZN8QuantLib30CTSMMCapletOriginalCalibration19calibrationFunctionERKNS_20EvolutionDescriptionERKNS_28PiecewiseConstantCorrelationERKSt6vectorIN5boost10shared_ptrINS_25PiecewiseConstantVarianceEEESaISB_EERKS7_IdSaIdEERKNS_10CurveStateEdSJ_bbmRS7_INS_6MatrixESaISN_EE(ptr noundef nonnull align 8 dereferenceable(128) %evolution_, ptr noundef nonnull align 8 dereferenceable(8) %call, ptr noundef nonnull align 8 dereferenceable(24) %displacedSwapVariances_, ptr noundef nonnull align 8 dereferenceable(24) %usedCapletVols_, ptr noundef nonnull align 8 dereferenceable(64) %call3, double noundef %2, ptr noundef nonnull align 8 dereferenceable(24) %alpha_, i1 noundef zeroext %loadedv, i1 noundef zeroext %loadedv4, i64 noundef %conv, ptr noundef nonnull align 8 dereferenceable(24) %swapCovariancePseudoRoots_)
  ret i32 %call5
}