; Function Attrs: mustprogress uwtable
define noundef i32 @_ZN8QuantLib30CTSMMCapletOriginalCalibration16calibrationImpl_Ejjd(ptr noundef nonnull align 8 dereferenceable(450) %this, i32 noundef %numberOfFactors, i32 %0, double %1) unnamed_addr #1 align 2 {
entry:
  %corr_ = getelementptr inbounds nuw i8, ptr %this, i64 136
  %2 = load ptr, ptr %corr_, align 8, !tbaa !18
  %cmp.not.i = icmp eq ptr %2, null
  br i1 %cmp.not.i, label %cond.false.i, label %_ZNK5boost10shared_ptrIN8QuantLib28PiecewiseConstantCorrelationEEdeEv.exit, !prof !23

cond.false.i:                                     ; preds = %entry
  tail call void @_ZN5boost16assertion_failedEPKcS1_S1_l(ptr noundef nonnull @.str.25, ptr noundef nonnull @__PRETTY_FUNCTION__._ZNK5boost10shared_ptrIN8QuantLib28PiecewiseConstantCorrelationEEdeEv, ptr noundef nonnull @.str.26, i64 noundef 778)
  %.pre.i = load ptr, ptr %corr_, align 8, !tbaa !18
  br label %_ZNK5boost10shared_ptrIN8QuantLib28PiecewiseConstantCorrelationEEdeEv.exit

_ZNK5boost10shared_ptrIN8QuantLib28PiecewiseConstantCorrelationEEdeEv.exit: ; preds = %entry, %cond.false.i
  %3 = phi ptr [ %2, %entry ], [ %.pre.i, %cond.false.i ]
  %cs_ = getelementptr inbounds nuw i8, ptr %this, i64 296
  %4 = load ptr, ptr %cs_, align 8, !tbaa !34
  %cmp.not.i1 = icmp eq ptr %4, null
  br i1 %cmp.not.i1, label %cond.false.i2, label %_ZNK5boost10shared_ptrIN8QuantLib10CurveStateEEdeEv.exit, !prof !23

cond.false.i2:                                    ; preds = %_ZNK5boost10shared_ptrIN8QuantLib28PiecewiseConstantCorrelationEEdeEv.exit
  tail call void @_ZN5boost16assertion_failedEPKcS1_S1_l(ptr noundef nonnull @.str.25, ptr noundef nonnull @__PRETTY_FUNCTION__._ZNK5boost10shared_ptrIN8QuantLib10CurveStateEEdeEv, ptr noundef nonnull @.str.26, i64 noundef 778)
  %.pre.i3 = load ptr, ptr %cs_, align 8, !tbaa !34
  br label %_ZNK5boost10shared_ptrIN8QuantLib10CurveStateEEdeEv.exit

_ZNK5boost10shared_ptrIN8QuantLib10CurveStateEEdeEv.exit: ; preds = %_ZNK5boost10shared_ptrIN8QuantLib28PiecewiseConstantCorrelationEEdeEv.exit, %cond.false.i2
  %5 = phi ptr [ %4, %_ZNK5boost10shared_ptrIN8QuantLib28PiecewiseConstantCorrelationEEdeEv.exit ], [ %.pre.i3, %cond.false.i2 ]
  %usedCapletVols_ = getelementptr inbounds nuw i8, ptr %this, i64 328
  %displacedSwapVariances_ = getelementptr inbounds nuw i8, ptr %this, i64 152
  %evolution_ = getelementptr inbounds nuw i8, ptr %this, i64 8
  %displacement_ = getelementptr inbounds nuw i8, ptr %this, i64 312
  %6 = load double, ptr %displacement_, align 8, !tbaa !124
  %alpha_ = getelementptr inbounds nuw i8, ptr %this, i64 424
  %lowestRoot_ = getelementptr inbounds nuw i8, ptr %this, i64 448
  %7 = load i8, ptr %lowestRoot_, align 8, !tbaa !43, !range !125, !noundef !126
  %loadedv = trunc nuw i8 %7 to i1
  %useFullApprox_ = getelementptr inbounds nuw i8, ptr %this, i64 449
  %8 = load i8, ptr %useFullApprox_, align 1, !tbaa !70, !range !125, !noundef !126
  %loadedv4 = trunc nuw i8 %8 to i1
  %conv = zext i32 %numberOfFactors to i64
  %swapCovariancePseudoRoots_ = getelementptr inbounds nuw i8, ptr %this, i64 400
  %call5 = tail call noundef i32 @_ZN8QuantLib30CTSMMCapletOriginalCalibration19calibrationFunctionERKNS_20EvolutionDescriptionERKNS_28PiecewiseConstantCorrelationERKSt6vectorIN5boost10shared_ptrINS_25PiecewiseConstantVarianceEEESaISB_EERKS7_IdSaIdEERKNS_10CurveStateEdSJ_bbmRS7_INS_6MatrixESaISN_EE(ptr noundef nonnull align 8 dereferenceable(128) %evolution_, ptr noundef nonnull align 8 dereferenceable(8) %3, ptr noundef nonnull align 8 dereferenceable(24) %displacedSwapVariances_, ptr noundef nonnull align 8 dereferenceable(24) %usedCapletVols_, ptr noundef nonnull align 8 dereferenceable(64) %5, double noundef %6, ptr noundef nonnull align 8 dereferenceable(24) %alpha_, i1 noundef zeroext %loadedv, i1 noundef zeroext %loadedv4, i64 noundef %conv, ptr noundef nonnull align 8 dereferenceable(24) %swapCovariancePseudoRoots_)
  ret i32 %call5
}